; Function Attrs: mustprogress uwtable
define dso_local void @_ZN25cmCPackInnoSetupGenerator28CreateRecursiveComponentPathEP21cmCPackComponentGroupRKNSt7__cxx1112basic_stringIcSt11char_traitsIcESaIcEEE(ptr dead_on_unwind noalias writable sret(%"class.std::__cxx11::basic_string") align 8 %0, ptr nocapture noundef nonnull readnone align 8 dereferenceable(656) %1, ptr noundef %2, ptr noundef nonnull align 8 dereferenceable(32) %3) local_unnamed_addr #3 align 2 personality ptr @__gxx_personality_v0 {
  %5 = alloca [3 x %"struct.std::pair.55"], align 8
  %6 = alloca %class.cmAlphaNum, align 8
  %7 = alloca %"class.std::__cxx11::basic_string", align 8
  %8 = icmp eq ptr %2, null
  br i1 %8, label %9, label %10

9:                                                ; preds = %4
  tail call void @_ZNSt7__cxx1112basic_stringIcSt11char_traitsIcESaIcEEC1ERKS4_(ptr noundef nonnull align 8 dereferenceable(32) %0, ptr noundef nonnull align 8 dereferenceable(32) %3)
  br label %34

10:                                               ; preds = %4
  %11 = tail call noundef zeroext i1 @_ZNKSt7__cxx1112basic_stringIcSt11char_traitsIcESaIcEE5emptyEv(ptr noundef nonnull align 8 dereferenceable(32) %3) #19
  br i1 %11, label %12, label %13

12:                                               ; preds = %10
  call void @_ZNSt7__cxx1112basic_stringIcSt11char_traitsIcESaIcEEC1ERKS4_(ptr noundef nonnull align 8 dereferenceable(32) %7, ptr noundef nonnull align 8 dereferenceable(32) %2)
  br label %28

13:                                               ; preds = %10
  call void @llvm.lifetime.start.p0(i64 72, ptr nonnull %5)
  call void @llvm.lifetime.start.p0(i64 56, ptr nonnull %6)
  %14 = tail call { i64, ptr } @_ZNKSt7__cxx1112basic_stringIcSt11char_traitsIcESaIcEEcvSt17basic_string_viewIcS2_EEv(ptr noundef nonnull align 8 dereferenceable(32) %2) #19, !noalias !409
  %15 = extractvalue { i64, ptr } %14, 0
  %16 = extractvalue { i64, ptr } %14, 1
  store i64 %15, ptr %5, align 8, !alias.scope !412, !noalias !409
  %.sroa.2.0..sroa_idx.i.i = getelementptr inbounds i8, ptr %5, i64 8
  store ptr %16, ptr %.sroa.2.0..sroa_idx.i.i, align 8, !alias.scope !412, !noalias !409
  %17 = getelementptr inbounds i8, ptr %5, i64 16
  store ptr null, ptr %17, align 8, !alias.scope !412, !noalias !409
  %18 = getelementptr inbounds i8, ptr %5, i64 24
  store ptr null, ptr %6, align 8, !noalias !409
  %19 = getelementptr inbounds i8, ptr %6, i64 8
  %20 = getelementptr inbounds i8, ptr %6, i64 24
  store i64 1, ptr %19, align 8, !noalias !409
  %21 = getelementptr inbounds i8, ptr %6, i64 16
  store ptr %20, ptr %21, align 8, !noalias !409
  store i8 92, ptr %20, align 8, !noalias !409
  store i64 1, ptr %18, align 8, !alias.scope !415, !noalias !409
  %.sroa.2.0..sroa_idx.i7.i = getelementptr inbounds i8, ptr %5, i64 32
  store ptr %20, ptr %.sroa.2.0..sroa_idx.i7.i, align 8, !alias.scope !415, !noalias !409
  %22 = getelementptr inbounds i8, ptr %5, i64 40
  store ptr null, ptr %22, align 8, !alias.scope !415, !noalias !409
  %23 = getelementptr inbounds i8, ptr %5, i64 48
  %24 = call { i64, ptr } @_ZNKSt7__cxx1112basic_stringIcSt11char_traitsIcESaIcEEcvSt17basic_string_viewIcS2_EEv(ptr noundef nonnull align 8 dereferenceable(32) %3) #19, !noalias !409
  %25 = extractvalue { i64, ptr } %24, 0
  %26 = extractvalue { i64, ptr } %24, 1
  store i64 %25, ptr %23, align 8, !alias.scope !418, !noalias !409
  %.sroa.2.0..sroa_idx.i16.i = getelementptr inbounds i8, ptr %5, i64 56
  store ptr %26, ptr %.sroa.2.0..sroa_idx.i16.i, align 8, !alias.scope !418, !noalias !409
  %27 = getelementptr inbounds i8, ptr %5, i64 64
  store ptr null, ptr %27, align 8, !alias.scope !418, !noalias !409
  call void @_Z10cmCatViewsSt16initializer_listISt4pairISt17basic_string_viewIcSt11char_traitsIcEEPNSt7__cxx1112basic_stringIcS3_SaIcEEEEE(ptr dead_on_unwind nonnull writable sret(%"class.std::__cxx11::basic_string") align 8 %7, ptr nonnull %5, i64 3)
  call void @llvm.lifetime.end.p0(i64 72, ptr nonnull %5)
  call void @llvm.lifetime.end.p0(i64 56, ptr nonnull %6)
  br label %28

28:                                               ; preds = %13, %12
  %29 = getelementptr inbounds i8, ptr %2, i64 128
  %30 = load ptr, ptr %29, align 8
  invoke void @_ZN25cmCPackInnoSetupGenerator28CreateRecursiveComponentPathEP21cmCPackComponentGroupRKNSt7__cxx1112basic_stringIcSt11char_traitsIcESaIcEEE(ptr dead_on_unwind writable sret(%"class.std::__cxx11::basic_string") align 8 %0, ptr noundef nonnull align 8 dereferenceable(656) %1, ptr noundef %30, ptr noundef nonnull align 8 dereferenceable(32) %7)
          to label %31 unwind label %32

31:                                               ; preds = %28
  call void @_ZNSt7__cxx1112basic_stringIcSt11char_traitsIcESaIcEED1Ev(ptr noundef nonnull align 8 dereferenceable(32) %7) #19
  br label %34

32:                                               ; preds = %28
  %33 = landingpad { ptr, i32 }
          cleanup
  call void @_ZNSt7__cxx1112basic_stringIcSt11char_traitsIcESaIcEED1Ev(ptr noundef nonnull align 8 dereferenceable(32) %7) #19
  resume { ptr, i32 } %33

34:                                               ; preds = %31, %9
  ret void
}